target datalayout = "e-m:e-p270:32:32-p271:32:32-p272:64:64-i64:64-i128:128-f80:128-n8:16:32:64-S128"
target triple = "x86_64-pc-linux-gnu"

%class.insn_t = type { i64 }
%struct.state_t = type { i64, %class.regfile_t, %class.regfile_t.0, %"class.std::unordered_map", i64, i64, i8, i8, i8, i8, %"class.std::shared_ptr", %"class.std::shared_ptr.3", %"class.std::shared_ptr.6", %"class.std::shared_ptr.6", %"class.std::shared_ptr.6", %"class.std::shared_ptr.6", %"class.std::shared_ptr.6", %"class.std::shared_ptr.9", %"class.std::shared_ptr.9", %"class.std::shared_ptr.12", %"class.std::shared_ptr.15", %"class.std::shared_ptr.6", %"class.std::shared_ptr.6", %"class.std::shared_ptr.6", [29 x %"class.std::shared_ptr.6"], %"class.std::shared_ptr.6", %"class.std::shared_ptr.6", %"class.std::shared_ptr.6", %"class.std::shared_ptr.6", %"class.std::shared_ptr.6", %"class.std::shared_ptr.6", %"class.std::shared_ptr.18", %"class.std::shared_ptr.6", %"class.std::shared_ptr.6", %"class.std::shared_ptr.6", %"class.std::shared_ptr.6", %"class.std::shared_ptr.6", %"class.std::shared_ptr.21", %"class.std::shared_ptr.6", %"class.std::shared_ptr.6", %"class.std::shared_ptr.6", %"class.std::shared_ptr.6", %"class.std::shared_ptr.6", %"class.std::shared_ptr.6", %"class.std::shared_ptr.6", %"class.std::shared_ptr.6", %"class.std::shared_ptr.6", %"class.std::shared_ptr.24", %"class.std::shared_ptr.27", %"class.std::shared_ptr.30", %"class.std::shared_ptr.6", %"class.std::shared_ptr.6", %"class.std::shared_ptr.6", %"class.std::shared_ptr.6", %"class.std::shared_ptr.6", %"class.std::shared_ptr.6", %"class.std::shared_ptr.33", %"class.std::shared_ptr.6", %"class.std::shared_ptr.6", %"class.std::shared_ptr.6", %"class.std::shared_ptr.6", %"class.std::shared_ptr.6", i8, %"class.std::shared_ptr.36", [64 x %"class.std::shared_ptr.39"], %"class.std::shared_ptr.42", %"class.std::shared_ptr.42", %"class.std::shared_ptr.6", %"class.std::shared_ptr.6", %"class.std::shared_ptr.6", [4 x %"class.std::shared_ptr.6"], [4 x %"class.std::shared_ptr.6"], [4 x %"class.std::shared_ptr.6"], %"class.std::shared_ptr.6", %"class.std::shared_ptr.45", %"class.std::shared_ptr.6", %"class.std::shared_ptr.6", %"class.std::shared_ptr.6", %"class.std::shared_ptr.6", i8, i32, %"class.std::unordered_map.48", %"class.std::vector", %"class.std::vector", i64, i32, i32 }
%class.regfile_t = type { [32 x i64] }
%class.regfile_t.0 = type { [32 x %struct.float128_t] }
%struct.float128_t = type { [2 x i64] }
%"class.std::unordered_map" = type { %"class.std::_Hashtable" }
%"class.std::_Hashtable" = type { ptr, i64, %"struct.std::__detail::_Hash_node_base", i64, %"struct.std::__detail::_Prime_rehash_policy", ptr }
%"struct.std::__detail::_Hash_node_base" = type { ptr }
%"struct.std::__detail::_Prime_rehash_policy" = type { float, i64 }
%"class.std::shared_ptr" = type { %"class.std::__shared_ptr" }
%"class.std::__shared_ptr" = type { ptr, %"class.std::__shared_count" }
%"class.std::__shared_count" = type { ptr }
%"class.std::shared_ptr.3" = type { %"class.std::__shared_ptr.4" }
%"class.std::__shared_ptr.4" = type { ptr, %"class.std::__shared_count" }
%"class.std::shared_ptr.9" = type { %"class.std::__shared_ptr.10" }
%"class.std::__shared_ptr.10" = type { ptr, %"class.std::__shared_count" }
%"class.std::shared_ptr.12" = type { %"class.std::__shared_ptr.13" }
%"class.std::__shared_ptr.13" = type { ptr, %"class.std::__shared_count" }
%"class.std::shared_ptr.15" = type { %"class.std::__shared_ptr.16" }
%"class.std::__shared_ptr.16" = type { ptr, %"class.std::__shared_count" }
%"class.std::shared_ptr.18" = type { %"class.std::__shared_ptr.19" }
%"class.std::__shared_ptr.19" = type { ptr, %"class.std::__shared_count" }
%"class.std::shared_ptr.21" = type { %"class.std::__shared_ptr.22" }
%"class.std::__shared_ptr.22" = type { ptr, %"class.std::__shared_count" }
%"class.std::shared_ptr.24" = type { %"class.std::__shared_ptr.25" }
%"class.std::__shared_ptr.25" = type { ptr, %"class.std::__shared_count" }
%"class.std::shared_ptr.27" = type { %"class.std::__shared_ptr.28" }
%"class.std::__shared_ptr.28" = type { ptr, %"class.std::__shared_count" }
%"class.std::shared_ptr.30" = type { %"class.std::__shared_ptr.31" }
%"class.std::__shared_ptr.31" = type { ptr, %"class.std::__shared_count" }
%"class.std::shared_ptr.33" = type { %"class.std::__shared_ptr.34" }
%"class.std::__shared_ptr.34" = type { ptr, %"class.std::__shared_count" }
%"class.std::shared_ptr.36" = type { %"class.std::__shared_ptr.37" }
%"class.std::__shared_ptr.37" = type { ptr, %"class.std::__shared_count" }
%"class.std::shared_ptr.39" = type { %"class.std::__shared_ptr.40" }
%"class.std::__shared_ptr.40" = type { ptr, %"class.std::__shared_count" }
%"class.std::shared_ptr.42" = type { %"class.std::__shared_ptr.43" }
%"class.std::__shared_ptr.43" = type { ptr, %"class.std::__shared_count" }
%"class.std::shared_ptr.45" = type { %"class.std::__shared_ptr.46" }
%"class.std::__shared_ptr.46" = type { ptr, %"class.std::__shared_count" }
%"class.std::shared_ptr.6" = type { %"class.std::__shared_ptr.7" }
%"class.std::__shared_ptr.7" = type { ptr, %"class.std::__shared_count" }
%"class.std::unordered_map.48" = type { %"class.std::_Hashtable.49" }
%"class.std::_Hashtable.49" = type { ptr, i64, %"struct.std::__detail::_Hash_node_base", i64, %"struct.std::__detail::_Prime_rehash_policy", ptr }
%"class.std::vector" = type { %"struct.std::_Vector_base" }
%"struct.std::_Vector_base" = type { %"struct.std::_Vector_base<std::tuple<unsigned long, unsigned long, unsigned char>, std::allocator<std::tuple<unsigned long, unsigned long, unsigned char>>>::_Vector_impl" }
%"struct.std::_Vector_base<std::tuple<unsigned long, unsigned long, unsigned char>, std::allocator<std::tuple<unsigned long, unsigned long, unsigned char>>>::_Vector_impl" = type { %"struct.std::_Vector_base<std::tuple<unsigned long, unsigned long, unsigned char>, std::allocator<std::tuple<unsigned long, unsigned long, unsigned char>>>::_Vector_impl_data" }
%"struct.std::_Vector_base<std::tuple<unsigned long, unsigned long, unsigned char>, std::allocator<std::tuple<unsigned long, unsigned long, unsigned char>>>::_Vector_impl_data" = type { ptr, ptr, ptr }
%class.processor_t = type { %class.abstract_device_t, i8, i32, ptr, ptr, ptr, ptr, %"class.std::unordered_map.65", ptr, %struct.state_t, i32, i32, i8, i8, ptr, %"class.std::basic_ostream", i8, i8, i8, %"class.std::vector.85", %"class.std::bitset", %"class.std::bitset", %"class.std::bitset", %"class.std::vector.89", %"class.std::unordered_map.94", [8191 x %struct.insn_desc_t], i64, i64, i64, %class.entropy_source, i64, i64, %class.vectorUnit_t, %"class.triggers::module_t" }
%class.abstract_device_t = type { ptr }
%"class.std::unordered_map.65" = type { %"class.std::_Hashtable.66" }
%"class.std::_Hashtable.66" = type { ptr, i64, %"struct.std::__detail::_Hash_node_base", i64, %"struct.std::__detail::_Prime_rehash_policy", ptr }
%"class.std::basic_ostream" = type { ptr, %"class.std::basic_ios" }
%"class.std::basic_ios" = type { %"class.std::ios_base", ptr, i8, i8, ptr, ptr, ptr, ptr }
%"class.std::ios_base" = type { ptr, i64, i64, i32, i32, i32, ptr, %"struct.std::ios_base::_Words", [8 x %"struct.std::ios_base::_Words"], i32, ptr, %"class.std::locale" }
%"struct.std::ios_base::_Words" = type { ptr, i64 }
%"class.std::locale" = type { ptr }
%"class.std::vector.85" = type { %"struct.std::_Bvector_base" }
%"struct.std::_Bvector_base" = type { %"struct.std::_Bvector_base<std::allocator<bool>>::_Bvector_impl" }
%"struct.std::_Bvector_base<std::allocator<bool>>::_Bvector_impl" = type { %"struct.std::_Bvector_base<std::allocator<bool>>::_Bvector_impl_data" }
%"struct.std::_Bvector_base<std::allocator<bool>>::_Bvector_impl_data" = type { %"struct.std::_Bit_iterator", %"struct.std::_Bit_iterator", ptr }
%"struct.std::_Bit_iterator" = type { %"struct.std::_Bit_iterator_base.base", [4 x i8] }
%"struct.std::_Bit_iterator_base.base" = type <{ ptr, i32 }>
%"class.std::bitset" = type { %"struct.std::_Base_bitset" }
%"struct.std::_Base_bitset" = type { [3 x i64] }
%"class.std::vector.89" = type { %"struct.std::_Vector_base.90" }
%"struct.std::_Vector_base.90" = type { %"struct.std::_Vector_base<insn_desc_t, std::allocator<insn_desc_t>>::_Vector_impl" }
%"struct.std::_Vector_base<insn_desc_t, std::allocator<insn_desc_t>>::_Vector_impl" = type { %"struct.std::_Vector_base<insn_desc_t, std::allocator<insn_desc_t>>::_Vector_impl_data" }
%"struct.std::_Vector_base<insn_desc_t, std::allocator<insn_desc_t>>::_Vector_impl_data" = type { ptr, ptr, ptr }
%"class.std::unordered_map.94" = type { %"class.std::_Hashtable.95" }
%"class.std::_Hashtable.95" = type { ptr, i64, %"struct.std::__detail::_Hash_node_base", i64, %"struct.std::__detail::_Prime_rehash_policy", ptr }
%struct.insn_desc_t = type { i64, i64, ptr, ptr, ptr, ptr, ptr, ptr, ptr, ptr }
%class.entropy_source = type { %"class.std::__cxx11::basic_string" }
%"class.std::__cxx11::basic_string" = type { %"struct.std::__cxx11::basic_string<char>::_Alloc_hider", i64, %union.anon }
%"struct.std::__cxx11::basic_string<char>::_Alloc_hider" = type { ptr }
%union.anon = type { i64, [8 x i8] }
%class.vectorUnit_t = type <{ ptr, ptr, [32 x i8], i32, [4 x i8], i64, i64, %"class.std::shared_ptr.6", %"class.std::shared_ptr.111", %"class.std::shared_ptr.111", %"class.std::shared_ptr.111", %"class.std::shared_ptr.111", i64, i64, i64, float, [4 x i8], i64, i64, i8, i8, [6 x i8] }>
%"class.std::shared_ptr.111" = type { %"class.std::__shared_ptr.112" }
%"class.std::__shared_ptr.112" = type { ptr, %"class.std::__shared_count" }
%"class.triggers::module_t" = type { ptr, %"class.std::vector.114" }
%"class.std::vector.114" = type { %"struct.std::_Vector_base.115" }
%"struct.std::_Vector_base.115" = type { %"struct.std::_Vector_base<triggers::trigger_t *, std::allocator<triggers::trigger_t *>>::_Vector_impl" }
%"struct.std::_Vector_base<triggers::trigger_t *, std::allocator<triggers::trigger_t *>>::_Vector_impl" = type { %"struct.std::_Vector_base<triggers::trigger_t *, std::allocator<triggers::trigger_t *>>::_Vector_impl_data" }
%"struct.std::_Vector_base<triggers::trigger_t *, std::allocator<triggers::trigger_t *>>::_Vector_impl_data" = type { ptr, ptr, ptr }

; Function Attrs: mustprogress nounwind uwtable
define linkonce_odr noundef i64 @_ZN6insn_t1xEii(ptr noundef nonnull align 8 dereferenceable(8) %0, i32 noundef %1, i32 noundef %2) #5 comdat align 2 {
  %4 = alloca ptr, align 8
  %5 = alloca i32, align 4
  %6 = alloca i32, align 4
  store ptr %0, ptr %4, align 8
  store i32 %1, ptr %5, align 4
  store i32 %2, ptr %6, align 4
  %7 = load ptr, ptr %4, align 8
  %8 = getelementptr inbounds %class.insn_t, ptr %7, i32 0, i32 0
  %9 = load i64, ptr %8, align 8
  %10 = load i32, ptr %5, align 4
  %11 = zext i32 %10 to i64
  %12 = lshr i64 %9, %11
  %13 = load i32, ptr %6, align 4
  %14 = zext i32 %13 to i64
  %15 = shl i64 1, %14
  %16 = sub i64 %15, 1
  %17 = and i64 %12, %16
  ret i64 %17
}

; Function Attrs: mustprogress nounwind uwtable
define linkonce_odr noundef i64 @_ZN6insn_t2xsEii(ptr noundef nonnull align 8 dereferenceable(8) %0, i32 noundef %1, i32 noundef %2) #5 comdat align 2 {
  %4 = alloca ptr, align 8
  %5 = alloca i32, align 4
  %6 = alloca i32, align 4
  store ptr %0, ptr %4, align 8
  store i32 %1, ptr %5, align 4
  store i32 %2, ptr %6, align 4
  %7 = load ptr, ptr %4, align 8
  %8 = getelementptr inbounds %class.insn_t, ptr %7, i32 0, i32 0
  %9 = load i64, ptr %8, align 8
  %10 = load i32, ptr %5, align 4
  %11 = sub nsw i32 64, %10
  %12 = load i32, ptr %6, align 4
  %13 = sub nsw i32 %11, %12
  %14 = zext i32 %13 to i64
  %15 = shl i64 %9, %14
  %16 = load i32, ptr %6, align 4
  %17 = sub nsw i32 64, %16
  %18 = zext i32 %17 to i64
  %19 = ashr i64 %15, %18
  ret i64 %19
}

; Function Attrs: mustprogress nounwind uwtable
define internal void @_ZL12trace_opcodeP11processor_tm6insn_t(ptr noundef %0, i64 noundef %1, i64 %2) #5 {
  %4 = alloca %class.insn_t, align 8
  %5 = alloca ptr, align 8
  %6 = alloca i64, align 8
  %7 = getelementptr inbounds %class.insn_t, ptr %4, i32 0, i32 0
  store i64 %2, ptr %7, align 8
  store ptr %0, ptr %5, align 8
  store i64 %1, ptr %6, align 8
  ret void
}

; Function Attrs: mustprogress nounwind uwtable
define linkonce_odr void @_ZN9regfile_tImLm32ELb1EE5writeEmm(ptr noundef nonnull align 8 dereferenceable(256) %0, i64 noundef %1, i64 noundef %2) #5 comdat align 2 {
  %4 = alloca ptr, align 8
  %5 = alloca i64, align 8
  %6 = alloca i64, align 8
  store ptr %0, ptr %4, align 8
  store i64 %1, ptr %5, align 8
  store i64 %2, ptr %6, align 8
  %7 = load ptr, ptr %4, align 8
  %8 = load i64, ptr %5, align 8
  %9 = icmp ne i64 %8, 0
  br i1 %9, label %10, label %15

10:                                               ; preds = %3
  %11 = load i64, ptr %6, align 8
  %12 = getelementptr inbounds %class.regfile_t, ptr %7, i32 0, i32 0
  %13 = load i64, ptr %5, align 8
  %14 = getelementptr inbounds [32 x i64], ptr %12, i64 0, i64 %13
  store i64 %11, ptr %14, align 8
  br label %15

15:                                               ; preds = %10, %3
  ret void
}

; Function Attrs: mustprogress uwtable
define linkonce_odr noundef i64 @_ZN6insn_t2rdEv(ptr noundef nonnull align 8 dereferenceable(8) %0) #4 comdat align 2 {
  %2 = alloca ptr, align 8
  store ptr %0, ptr %2, align 8
  %3 = load ptr, ptr %2, align 8
  %4 = call noundef i64 @_ZN6insn_t1xEii(ptr noundef nonnull align 8 dereferenceable(8) %3, i32 noundef 7, i32 noundef 5)
  ret i64 %4
}

; Function Attrs: mustprogress nounwind uwtable
define linkonce_odr noundef ptr @_ZN11processor_t9get_stateEv(ptr noundef nonnull align 8 dereferenceable(659880) %0) #5 comdat align 2 {
  %2 = alloca ptr, align 8
  store ptr %0, ptr %2, align 8
  %3 = load ptr, ptr %2, align 8
  %4 = getelementptr inbounds %class.processor_t, ptr %3, i32 0, i32 9
  ret ptr %4
}

; Function Attrs: mustprogress uwtable
define linkonce_odr noundef i64 @_ZN6insn_t5u_immEv(ptr noundef nonnull align 8 dereferenceable(8) %0) #4 comdat align 2 {
  %2 = alloca ptr, align 8
  store ptr %0, ptr %2, align 8
  %3 = load ptr, ptr %2, align 8
  %4 = call noundef i64 @_ZN6insn_t2xsEii(ptr noundef nonnull align 8 dereferenceable(8) %3, i32 noundef 12, i32 noundef 20)
  %5 = shl i64 %4, 12
  ret i64 %5
}

; Function Attrs: mustprogress uwtable
define noundef i64 @_Z14fast_rv64i_luiP11processor_t6insn_tm(ptr noundef %0, i64 %1, i64 noundef %2) #4 {
  %4 = alloca %class.insn_t, align 8
  %5 = alloca ptr, align 8
  %6 = alloca i64, align 8
  %7 = alloca i64, align 8
  %8 = alloca i64, align 8
  %9 = alloca %class.insn_t, align 8
  %10 = getelementptr inbounds %class.insn_t, ptr %4, i32 0, i32 0
  store i64 %1, ptr %10, align 8
  store ptr %0, ptr %5, align 8
  store i64 %2, ptr %6, align 8
  %11 = load i64, ptr %6, align 8
  %12 = add i64 %11, 4
  %13 = shl i64 %12, 0
  %14 = ashr i64 %13, 0
  store i64 %14, ptr %7, align 8
  %15 = call noundef i64 @_ZN6insn_t5u_immEv(ptr noundef nonnull align 8 dereferenceable(8) %4)
  store i64 %15, ptr %8, align 8
  %16 = load ptr, ptr %5, align 8
  %17 = call noundef ptr @_ZN11processor_t9get_stateEv(ptr noundef nonnull align 8 dereferenceable(659880) %16)
  %18 = getelementptr inbounds %struct.state_t, ptr %17, i32 0, i32 1
  %19 = call noundef i64 @_ZN6insn_t2rdEv(ptr noundef nonnull align 8 dereferenceable(8) %4)
  %20 = load i64, ptr %8, align 8
  call void @_ZN9regfile_tImLm32ELb1EE5writeEmm(ptr noundef nonnull align 8 dereferenceable(256) %18, i64 noundef %19, i64 noundef %20)
  %21 = load ptr, ptr %5, align 8
  call void @llvm.memcpy.p0.p0.i64(ptr align 8 %9, ptr align 8 %4, i64 8, i1 false)
  %22 = getelementptr inbounds %class.insn_t, ptr %9, i32 0, i32 0
  %23 = load i64, ptr %22, align 8
  call void @_ZL12trace_opcodeP11processor_tm6insn_t(ptr noundef %21, i64 noundef 55, i64 %23)
  %24 = load i64, ptr %7, align 8
  ret i64 %24
}